target datalayout = "e-m:e-p270:32:32-p271:32:32-p272:64:64-i64:64-i128:128-f80:128-n8:16:32:64-S128"
target triple = "x86_64-pc-linux-gnu"

%"class.Json::Value" = type { %"union.Json::Value::ValueHolder", i16, ptr, i64 }
%"union.Json::Value::ValueHolder" = type { i64 }
%"struct.Json::Value::CommentInfo" = type { ptr }

@_ZN4Json5Value11CommentInfoC1Ev = dso_local unnamed_addr alias void (ptr), ptr @_ZN4Json5Value11CommentInfoC2Ev
@_ZN4Json5Value11CommentInfoD1Ev = dso_local unnamed_addr alias void (ptr), ptr @_ZN4Json5Value11CommentInfoD2Ev

; Function Attrs: mustprogress uwtable
define dso_local void @_ZN4Json5Value10setCommentEPKcmNS_16CommentPlacementE(ptr noundef nonnull align 8 dereferenceable(32) %0, ptr noundef %1, i64 noundef %2, i32 noundef %3) #1 align 2 personality ptr @__gxx_personality_v0 {
  %5 = alloca ptr, align 8
  %6 = alloca ptr, align 8
  %7 = alloca i64, align 8
  %8 = alloca i32, align 4
  %9 = alloca ptr, align 8
  %10 = alloca i32, align 4
  store ptr %0, ptr %5, align 8
  store ptr %1, ptr %6, align 8
  store i64 %2, ptr %7, align 8
  store i32 %3, ptr %8, align 4
  %11 = load ptr, ptr %5, align 8
  %12 = getelementptr inbounds %"class.Json::Value", ptr %11, i32 0, i32 2
  %13 = load ptr, ptr %12, align 8
  %14 = icmp ne ptr %13, null
  br i1 %14, label %36, label %15

15:                                               ; preds = %4
  %16 = call noalias noundef nonnull ptr @_Znam(i64 noundef 32) #20
  store i64 3, ptr %16, align 8
  %17 = getelementptr inbounds i8, ptr %16, i64 8
  %18 = getelementptr inbounds %"struct.Json::Value::CommentInfo", ptr %17, i64 3
  br label %19

19:                                               ; preds = %21, %15
  %20 = phi ptr [ %17, %15 ], [ %22, %21 ]
  invoke void @_ZN4Json5Value11CommentInfoC1Ev(ptr noundef nonnull align 8 dereferenceable(8) %20)
          to label %21 unwind label %26

21:                                               ; preds = %19
  %22 = getelementptr inbounds %"struct.Json::Value::CommentInfo", ptr %20, i64 1
  %23 = icmp eq ptr %22, %18
  br i1 %23, label %24, label %19

24:                                               ; preds = %21
  %25 = getelementptr inbounds %"class.Json::Value", ptr %11, i32 0, i32 2
  store ptr %17, ptr %25, align 8
  br label %36

26:                                               ; preds = %19
  %27 = landingpad { ptr, i32 }
          cleanup
  %28 = extractvalue { ptr, i32 } %27, 0
  store ptr %28, ptr %9, align 8
  %29 = extractvalue { ptr, i32 } %27, 1
  store i32 %29, ptr %10, align 4
  %30 = icmp eq ptr %17, %20
  br i1 %30, label %35, label %31

31:                                               ; preds = %31, %26
  %32 = phi ptr [ %20, %26 ], [ %33, %31 ]
  %33 = getelementptr inbounds %"struct.Json::Value::CommentInfo", ptr %32, i64 -1
  call void @_ZN4Json5Value11CommentInfoD1Ev(ptr noundef nonnull align 8 dereferenceable(8) %33) #10
  %34 = icmp eq ptr %33, %17
  br i1 %34, label %35, label %31

35:                                               ; preds = %31, %26
  call void @_ZdaPv(ptr noundef %16) #19
  br label %58

36:                                               ; preds = %24, %4
  %37 = load i64, ptr %7, align 8
  %38 = icmp ugt i64 %37, 0
  br i1 %38, label %39, label %50

39:                                               ; preds = %36
  %40 = load ptr, ptr %6, align 8
  %41 = load i64, ptr %7, align 8
  %42 = sub i64 %41, 1
  %43 = getelementptr inbounds i8, ptr %40, i64 %42
  %44 = load i8, ptr %43, align 1
  %45 = sext i8 %44 to i32
  %46 = icmp eq i32 %45, 10
  br i1 %46, label %47, label %50

47:                                               ; preds = %39
  %48 = load i64, ptr %7, align 8
  %49 = sub i64 %48, 1
  store i64 %49, ptr %7, align 8
  br label %50

50:                                               ; preds = %47, %39, %36
  %51 = getelementptr inbounds %"class.Json::Value", ptr %11, i32 0, i32 2
  %52 = load ptr, ptr %51, align 8
  %53 = load i32, ptr %8, align 4
  %54 = zext i32 %53 to i64
  %55 = getelementptr inbounds %"struct.Json::Value::CommentInfo", ptr %52, i64 %54
  %56 = load ptr, ptr %6, align 8
  %57 = load i64, ptr %7, align 8
  call void @_ZN4Json5Value11CommentInfo10setCommentEPKcm(ptr noundef nonnull align 8 dereferenceable(8) %55, ptr noundef %56, i64 noundef %57)
  ret void

58:                                               ; preds = %35
  %59 = load ptr, ptr %9, align 8
  %60 = load i32, ptr %10, align 4
  %61 = insertvalue { ptr, i32 } poison, ptr %59, 0
  %62 = insertvalue { ptr, i32 } %61, i32 %60, 1
  resume { ptr, i32 } %62
}