; Function Attrs: mustprogress uwtable
define dso_local void @_ZN4Json5Value10setCommentEPKcmNS_16CommentPlacementE(ptr nocapture noundef nonnull align 8 dereferenceable(32) %0, ptr noundef %1, i64 noundef %2, i32 noundef %3) local_unnamed_addr #2 align 2 personality ptr @__gxx_personality_v0 {
  %5 = getelementptr inbounds i8, ptr %0, i64 16
  %6 = load ptr, ptr %5, align 8
  %.not = icmp eq ptr %6, null
  br i1 %.not, label %7, label %9

7:                                                ; preds = %4
  %8 = tail call noalias noundef nonnull dereferenceable(32) ptr @_Znam(i64 noundef 32) #42
  store i64 3, ptr %8, align 8
  %.ptr13 = getelementptr inbounds i8, ptr %8, i64 8
  tail call void @llvm.memset.p0.i64(ptr noundef nonnull align 8 dereferenceable(24) %.ptr13, i8 0, i64 24, i1 false)
  store ptr %.ptr13, ptr %5, align 8
  br label %9

9:                                                ; preds = %7, %4
  %10 = phi ptr [ %.ptr13, %7 ], [ %6, %4 ]
  %.not14 = icmp eq i64 %2, 0
  br i1 %.not14, label %16, label %11

11:                                               ; preds = %9
  %12 = add i64 %2, -1
  %13 = getelementptr inbounds i8, ptr %1, i64 %12
  %14 = load i8, ptr %13, align 1
  %15 = icmp eq i8 %14, 10
  %spec.select = select i1 %15, i64 %12, i64 %2
  br label %16

16:                                               ; preds = %11, %9
  %.0 = phi i64 [ 0, %9 ], [ %spec.select, %11 ]
  %17 = zext i32 %3 to i64
  %18 = getelementptr inbounds %"struct.Json::Value::CommentInfo", ptr %10, i64 %17
  tail call void @_ZN4Json5Value11CommentInfo10setCommentEPKcm(ptr noundef nonnull align 8 dereferenceable(8) %18, ptr noundef %1, i64 noundef %.0)
  ret void
}